target datalayout = "e-m:e-p270:32:32-p271:32:32-p272:64:64-i64:64-i128:128-f80:128-n8:16:32:64-S128"
target triple = "x86_64-pc-linux-gnu"

%struct.stbtt__buf = type { ptr, i32, i32 }
%struct.stbtt_fontinfo = type { ptr, ptr, i32, i32, i32, i32, i32, i32, i32, i32, i32, i32, i32, i32, %struct.stbtt__buf, %struct.stbtt__buf, %struct.stbtt__buf, %struct.stbtt__buf, %struct.stbtt__buf, %struct.stbtt__buf }

@.str.4 = private unnamed_addr constant [5 x i8] c"SVG \00", align 1

; Function Attrs: nounwind uwtable
define i32 @ttULONG(ptr noundef %0) #0 {
  %2 = alloca ptr, align 8
  store ptr %0, ptr %2, align 8, !tbaa !25
  %3 = load ptr, ptr %2, align 8, !tbaa !25
  %4 = getelementptr inbounds i8, ptr %3, i64 0
  %5 = load i8, ptr %4, align 1, !tbaa !13
  %6 = zext i8 %5 to i32
  %7 = shl i32 %6, 24
  %8 = load ptr, ptr %2, align 8, !tbaa !25
  %9 = getelementptr inbounds i8, ptr %8, i64 1
  %10 = load i8, ptr %9, align 1, !tbaa !13
  %11 = zext i8 %10 to i32
  %12 = shl i32 %11, 16
  %13 = add nsw i32 %7, %12
  %14 = load ptr, ptr %2, align 8, !tbaa !25
  %15 = getelementptr inbounds i8, ptr %14, i64 2
  %16 = load i8, ptr %15, align 1, !tbaa !13
  %17 = zext i8 %16 to i32
  %18 = shl i32 %17, 8
  %19 = add nsw i32 %13, %18
  %20 = load ptr, ptr %2, align 8, !tbaa !25
  %21 = getelementptr inbounds i8, ptr %20, i64 3
  %22 = load i8, ptr %21, align 1, !tbaa !13
  %23 = zext i8 %22 to i32
  %24 = add nsw i32 %19, %23
  ret i32 %24
}

; Function Attrs: nounwind uwtable
define i32 @stbtt__find_table(ptr noundef %0, i32 noundef %1, ptr noundef %2) #0 {
  %4 = alloca i32, align 4
  %5 = alloca ptr, align 8
  %6 = alloca i32, align 4
  %7 = alloca ptr, align 8
  %8 = alloca i32, align 4
  %9 = alloca i32, align 4
  %10 = alloca i32, align 4
  %11 = alloca i32, align 4
  %12 = alloca i32, align 4
  store ptr %0, ptr %5, align 8, !tbaa !25
  store i32 %1, ptr %6, align 4, !tbaa !14
  store ptr %2, ptr %7, align 8, !tbaa !25
  call void @llvm.lifetime.start.p0(i64 4, ptr %8) #8
  %13 = load ptr, ptr %5, align 8, !tbaa !25
  %14 = load i32, ptr %6, align 4, !tbaa !14
  %15 = zext i32 %14 to i64
  %16 = getelementptr inbounds nuw i8, ptr %13, i64 %15
  %17 = getelementptr inbounds i8, ptr %16, i64 4
  %18 = call zeroext i16 @ttUSHORT(ptr noundef %17)
  %19 = zext i16 %18 to i32
  store i32 %19, ptr %8, align 4, !tbaa !14
  call void @llvm.lifetime.start.p0(i64 4, ptr %9) #8
  %20 = load i32, ptr %6, align 4, !tbaa !14
  %21 = add i32 %20, 12
  store i32 %21, ptr %9, align 4, !tbaa !14
  call void @llvm.lifetime.start.p0(i64 4, ptr %10) #8
  store i32 0, ptr %10, align 4, !tbaa !14
  br label %22

22:                                               ; preds = %97, %3
  %23 = load i32, ptr %10, align 4, !tbaa !14
  %24 = load i32, ptr %8, align 4, !tbaa !14
  %25 = icmp slt i32 %23, %24
  br i1 %25, label %26, label %100

26:                                               ; preds = %22
  call void @llvm.lifetime.start.p0(i64 4, ptr %11) #8
  %27 = load i32, ptr %9, align 4, !tbaa !14
  %28 = load i32, ptr %10, align 4, !tbaa !14
  %29 = mul nsw i32 16, %28
  %30 = add i32 %27, %29
  store i32 %30, ptr %11, align 4, !tbaa !14
  %31 = load ptr, ptr %5, align 8, !tbaa !25
  %32 = load i32, ptr %11, align 4, !tbaa !14
  %33 = zext i32 %32 to i64
  %34 = getelementptr inbounds nuw i8, ptr %31, i64 %33
  %35 = getelementptr inbounds i8, ptr %34, i64 0
  %36 = getelementptr inbounds i8, ptr %35, i64 0
  %37 = load i8, ptr %36, align 1, !tbaa !13
  %38 = zext i8 %37 to i32
  %39 = load ptr, ptr %7, align 8, !tbaa !25
  %40 = getelementptr inbounds i8, ptr %39, i64 0
  %41 = load i8, ptr %40, align 1, !tbaa !13
  %42 = sext i8 %41 to i32
  %43 = icmp eq i32 %38, %42
  br i1 %43, label %44, label %93

44:                                               ; preds = %26
  %45 = load ptr, ptr %5, align 8, !tbaa !25
  %46 = load i32, ptr %11, align 4, !tbaa !14
  %47 = zext i32 %46 to i64
  %48 = getelementptr inbounds nuw i8, ptr %45, i64 %47
  %49 = getelementptr inbounds i8, ptr %48, i64 0
  %50 = getelementptr inbounds i8, ptr %49, i64 1
  %51 = load i8, ptr %50, align 1, !tbaa !13
  %52 = zext i8 %51 to i32
  %53 = load ptr, ptr %7, align 8, !tbaa !25
  %54 = getelementptr inbounds i8, ptr %53, i64 1
  %55 = load i8, ptr %54, align 1, !tbaa !13
  %56 = sext i8 %55 to i32
  %57 = icmp eq i32 %52, %56
  br i1 %57, label %58, label %93

58:                                               ; preds = %44
  %59 = load ptr, ptr %5, align 8, !tbaa !25
  %60 = load i32, ptr %11, align 4, !tbaa !14
  %61 = zext i32 %60 to i64
  %62 = getelementptr inbounds nuw i8, ptr %59, i64 %61
  %63 = getelementptr inbounds i8, ptr %62, i64 0
  %64 = getelementptr inbounds i8, ptr %63, i64 2
  %65 = load i8, ptr %64, align 1, !tbaa !13
  %66 = zext i8 %65 to i32
  %67 = load ptr, ptr %7, align 8, !tbaa !25
  %68 = getelementptr inbounds i8, ptr %67, i64 2
  %69 = load i8, ptr %68, align 1, !tbaa !13
  %70 = sext i8 %69 to i32
  %71 = icmp eq i32 %66, %70
  br i1 %71, label %72, label %93

72:                                               ; preds = %58
  %73 = load ptr, ptr %5, align 8, !tbaa !25
  %74 = load i32, ptr %11, align 4, !tbaa !14
  %75 = zext i32 %74 to i64
  %76 = getelementptr inbounds nuw i8, ptr %73, i64 %75
  %77 = getelementptr inbounds i8, ptr %76, i64 0
  %78 = getelementptr inbounds i8, ptr %77, i64 3
  %79 = load i8, ptr %78, align 1, !tbaa !13
  %80 = zext i8 %79 to i32
  %81 = load ptr, ptr %7, align 8, !tbaa !25
  %82 = getelementptr inbounds i8, ptr %81, i64 3
  %83 = load i8, ptr %82, align 1, !tbaa !13
  %84 = sext i8 %83 to i32
  %85 = icmp eq i32 %80, %84
  br i1 %85, label %86, label %93

86:                                               ; preds = %72
  %87 = load ptr, ptr %5, align 8, !tbaa !25
  %88 = load i32, ptr %11, align 4, !tbaa !14
  %89 = zext i32 %88 to i64
  %90 = getelementptr inbounds nuw i8, ptr %87, i64 %89
  %91 = getelementptr inbounds i8, ptr %90, i64 8
  %92 = call i32 @ttULONG(ptr noundef %91)
  store i32 %92, ptr %4, align 4
  store i32 1, ptr %12, align 4
  br label %94

93:                                               ; preds = %72, %58, %44, %26
  store i32 0, ptr %12, align 4
  br label %94

94:                                               ; preds = %93, %86
  call void @llvm.lifetime.end.p0(i64 4, ptr %11) #8
  %95 = load i32, ptr %12, align 4
  switch i32 %95, label %101 [
    i32 0, label %96
  ]

96:                                               ; preds = %94
  br label %97

97:                                               ; preds = %96
  %98 = load i32, ptr %10, align 4, !tbaa !14
  %99 = add nsw i32 %98, 1
  store i32 %99, ptr %10, align 4, !tbaa !14
  br label %22, !llvm.loop !26

100:                                              ; preds = %22
  store i32 0, ptr %4, align 4
  store i32 1, ptr %12, align 4
  br label %101

101:                                              ; preds = %100, %94
  call void @llvm.lifetime.end.p0(i64 4, ptr %10) #8
  call void @llvm.lifetime.end.p0(i64 4, ptr %9) #8
  call void @llvm.lifetime.end.p0(i64 4, ptr %8) #8
  %102 = load i32, ptr %4, align 4
  ret i32 %102
}

; Function Attrs: nounwind uwtable
define zeroext i16 @ttUSHORT(ptr noundef %0) #0 {
  %2 = alloca ptr, align 8
  store ptr %0, ptr %2, align 8, !tbaa !25
  %3 = load ptr, ptr %2, align 8, !tbaa !25
  %4 = getelementptr inbounds i8, ptr %3, i64 0
  %5 = load i8, ptr %4, align 1, !tbaa !13
  %6 = zext i8 %5 to i32
  %7 = mul nsw i32 %6, 256
  %8 = load ptr, ptr %2, align 8, !tbaa !25
  %9 = getelementptr inbounds i8, ptr %8, i64 1
  %10 = load i8, ptr %9, align 1, !tbaa !13
  %11 = zext i8 %10 to i32
  %12 = add nsw i32 %7, %11
  %13 = trunc i32 %12 to i16
  ret i16 %13
}

; Function Attrs: nounwind uwtable
define i32 @stbtt__get_svg(ptr noundef %0) #0 {
  %2 = alloca ptr, align 8
  %3 = alloca i32, align 4
  %4 = alloca i32, align 4
  store ptr %0, ptr %2, align 8, !tbaa !28
  call void @llvm.lifetime.start.p0(i64 4, ptr %3) #8
  %5 = load ptr, ptr %2, align 8, !tbaa !28
  %6 = getelementptr inbounds nuw %struct.stbtt_fontinfo, ptr %5, i32 0, i32 11
  %7 = load i32, ptr %6, align 4, !tbaa !30
  %8 = icmp slt i32 %7, 0
  br i1 %8, label %9, label %37

9:                                                ; preds = %1
  %10 = load ptr, ptr %2, align 8, !tbaa !28
  %11 = getelementptr inbounds nuw %struct.stbtt_fontinfo, ptr %10, i32 0, i32 1
  %12 = load ptr, ptr %11, align 8, !tbaa !32
  %13 = load ptr, ptr %2, align 8, !tbaa !28
  %14 = getelementptr inbounds nuw %struct.stbtt_fontinfo, ptr %13, i32 0, i32 2
  %15 = load i32, ptr %14, align 8, !tbaa !33
  %16 = call i32 @stbtt__find_table(ptr noundef %12, i32 noundef %15, ptr noundef @.str.4)
  store i32 %16, ptr %3, align 4, !tbaa !14
  %17 = load i32, ptr %3, align 4, !tbaa !14
  %18 = icmp ne i32 %17, 0
  br i1 %18, label %19, label %33

19:                                               ; preds = %9
  call void @llvm.lifetime.start.p0(i64 4, ptr %4) #8
  %20 = load ptr, ptr %2, align 8, !tbaa !28
  %21 = getelementptr inbounds nuw %struct.stbtt_fontinfo, ptr %20, i32 0, i32 1
  %22 = load ptr, ptr %21, align 8, !tbaa !32
  %23 = load i32, ptr %3, align 4, !tbaa !14
  %24 = zext i32 %23 to i64
  %25 = getelementptr inbounds nuw i8, ptr %22, i64 %24
  %26 = getelementptr inbounds i8, ptr %25, i64 2
  %27 = call i32 @ttULONG(ptr noundef %26)
  store i32 %27, ptr %4, align 4, !tbaa !14
  %28 = load i32, ptr %3, align 4, !tbaa !14
  %29 = load i32, ptr %4, align 4, !tbaa !14
  %30 = add i32 %28, %29
  %31 = load ptr, ptr %2, align 8, !tbaa !28
  %32 = getelementptr inbounds nuw %struct.stbtt_fontinfo, ptr %31, i32 0, i32 11
  store i32 %30, ptr %32, align 4, !tbaa !30
  call void @llvm.lifetime.end.p0(i64 4, ptr %4) #8
  br label %36

33:                                               ; preds = %9
  %34 = load ptr, ptr %2, align 8, !tbaa !28
  %35 = getelementptr inbounds nuw %struct.stbtt_fontinfo, ptr %34, i32 0, i32 11
  store i32 0, ptr %35, align 4, !tbaa !30
  br label %36

36:                                               ; preds = %33, %19
  br label %37

37:                                               ; preds = %36, %1
  %38 = load ptr, ptr %2, align 8, !tbaa !28
  %39 = getelementptr inbounds nuw %struct.stbtt_fontinfo, ptr %38, i32 0, i32 11
  %40 = load i32, ptr %39, align 4, !tbaa !30
  call void @llvm.lifetime.end.p0(i64 4, ptr %3) #8
  ret i32 %40
}

; Function Attrs: nounwind uwtable
define ptr @stbtt_FindSVGDoc(ptr noundef %0, i32 noundef %1) #0 {
  %3 = alloca ptr, align 8
  %4 = alloca ptr, align 8
  %5 = alloca i32, align 4
  %6 = alloca i32, align 4
  %7 = alloca ptr, align 8
  %8 = alloca ptr, align 8
  %9 = alloca i32, align 4
  %10 = alloca ptr, align 8
  %11 = alloca ptr, align 8
  %12 = alloca i32, align 4
  store ptr %0, ptr %4, align 8, !tbaa !28
  store i32 %1, ptr %5, align 4, !tbaa !14
  call void @llvm.lifetime.start.p0(i64 4, ptr %6) #8
  call void @llvm.lifetime.start.p0(i64 8, ptr %7) #8
  %13 = load ptr, ptr %4, align 8, !tbaa !28
  %14 = getelementptr inbounds nuw %struct.stbtt_fontinfo, ptr %13, i32 0, i32 1
  %15 = load ptr, ptr %14, align 8, !tbaa !32
  store ptr %15, ptr %7, align 8, !tbaa !25
  call void @llvm.lifetime.start.p0(i64 8, ptr %8) #8
  %16 = load ptr, ptr %7, align 8, !tbaa !25
  %17 = load ptr, ptr %4, align 8, !tbaa !28
  %18 = call i32 @stbtt__get_svg(ptr noundef %17)
  %19 = sext i32 %18 to i64
  %20 = getelementptr inbounds i8, ptr %16, i64 %19
  store ptr %20, ptr %8, align 8, !tbaa !25
  call void @llvm.lifetime.start.p0(i64 4, ptr %9) #8
  %21 = load ptr, ptr %8, align 8, !tbaa !25
  %22 = call zeroext i16 @ttUSHORT(ptr noundef %21)
  %23 = zext i16 %22 to i32
  store i32 %23, ptr %9, align 4, !tbaa !14
  call void @llvm.lifetime.start.p0(i64 8, ptr %10) #8
  %24 = load ptr, ptr %8, align 8, !tbaa !25
  %25 = getelementptr inbounds i8, ptr %24, i64 2
  store ptr %25, ptr %10, align 8, !tbaa !25
  store i32 0, ptr %6, align 4, !tbaa !14
  br label %26

26:                                               ; preds = %54, %2
  %27 = load i32, ptr %6, align 4, !tbaa !14
  %28 = load i32, ptr %9, align 4, !tbaa !14
  %29 = icmp slt i32 %27, %28
  br i1 %29, label %30, label %57

30:                                               ; preds = %26
  call void @llvm.lifetime.start.p0(i64 8, ptr %11) #8
  %31 = load ptr, ptr %10, align 8, !tbaa !25
  %32 = load i32, ptr %6, align 4, !tbaa !14
  %33 = mul nsw i32 12, %32
  %34 = sext i32 %33 to i64
  %35 = getelementptr inbounds i8, ptr %31, i64 %34
  store ptr %35, ptr %11, align 8, !tbaa !25
  %36 = load i32, ptr %5, align 4, !tbaa !14
  %37 = load ptr, ptr %11, align 8, !tbaa !25
  %38 = call zeroext i16 @ttUSHORT(ptr noundef %37)
  %39 = zext i16 %38 to i32
  %40 = icmp sge i32 %36, %39
  br i1 %40, label %41, label %50

41:                                               ; preds = %30
  %42 = load i32, ptr %5, align 4, !tbaa !14
  %43 = load ptr, ptr %11, align 8, !tbaa !25
  %44 = getelementptr inbounds i8, ptr %43, i64 2
  %45 = call zeroext i16 @ttUSHORT(ptr noundef %44)
  %46 = zext i16 %45 to i32
  %47 = icmp sle i32 %42, %46
  br i1 %47, label %48, label %50

48:                                               ; preds = %41
  %49 = load ptr, ptr %11, align 8, !tbaa !25
  store ptr %49, ptr %3, align 8
  store i32 1, ptr %12, align 4
  br label %51

50:                                               ; preds = %41, %30
  store i32 0, ptr %12, align 4
  br label %51

51:                                               ; preds = %50, %48
  call void @llvm.lifetime.end.p0(i64 8, ptr %11) #8
  %52 = load i32, ptr %12, align 4
  switch i32 %52, label %58 [
    i32 0, label %53
  ]

53:                                               ; preds = %51
  br label %54

54:                                               ; preds = %53
  %55 = load i32, ptr %6, align 4, !tbaa !14
  %56 = add nsw i32 %55, 1
  store i32 %56, ptr %6, align 4, !tbaa !14
  br label %26, !llvm.loop !101

57:                                               ; preds = %26
  store ptr null, ptr %3, align 8
  store i32 1, ptr %12, align 4
  br label %58

58:                                               ; preds = %57, %51
  call void @llvm.lifetime.end.p0(i64 8, ptr %10) #8
  call void @llvm.lifetime.end.p0(i64 4, ptr %9) #8
  call void @llvm.lifetime.end.p0(i64 8, ptr %8) #8
  call void @llvm.lifetime.end.p0(i64 8, ptr %7) #8
  call void @llvm.lifetime.end.p0(i64 4, ptr %6) #8
  %59 = load ptr, ptr %3, align 8
  ret ptr %59
}