; Function Attrs: nofree norecurse nosync nounwind memory(read, argmem: readwrite, inaccessiblemem: none) uwtable
define noundef ptr @stbtt_FindSVGDoc(ptr noundef captures(none) %0, i32 noundef %1) local_unnamed_addr #3 {
  %3 = getelementptr inbounds nuw i8, ptr %0, i64 8
  %4 = load ptr, ptr %3, align 8, !tbaa !23
  %5 = getelementptr inbounds nuw i8, ptr %0, i64 52
  %6 = load i32, ptr %5, align 4, !tbaa !21
  %7 = icmp slt i32 %6, 0
  br i1 %7, label %8, label %stbtt__get_svg.exit

8:                                                ; preds = %2
  %9 = getelementptr inbounds nuw i8, ptr %0, i64 16
  %10 = load i32, ptr %9, align 8, !tbaa !24
  %11 = zext i32 %10 to i64
  %12 = getelementptr inbounds nuw i8, ptr %4, i64 %11
  %13 = getelementptr inbounds nuw i8, ptr %12, i64 4
  %14 = load i8, ptr %13, align 1, !tbaa !12
  %15 = zext i8 %14 to i32
  %16 = shl nuw nsw i32 %15, 8
  %17 = getelementptr inbounds nuw i8, ptr %12, i64 5
  %18 = load i8, ptr %17, align 1, !tbaa !12
  %19 = zext i8 %18 to i32
  %20 = or disjoint i32 %16, %19
  %21 = add i32 %10, 12
  %.not.i.i = icmp eq i32 %20, 0
  br i1 %.not.i.i, label %.sink.split.i, label %.lr.ph.i.i

.lr.ph.i.i:                                       ; preds = %8
  %wide.trip.count.i.i = zext nneg i32 %20 to i64
  br label %22

22:                                               ; preds = %41, %.lr.ph.i.i
  %indvars.iv.i.i = phi i64 [ 0, %.lr.ph.i.i ], [ %indvars.iv.next.i.i, %41 ]
  %indvars.iv.tr.i.i = trunc i64 %indvars.iv.i.i to i32
  %23 = shl i32 %indvars.iv.tr.i.i, 4
  %24 = add i32 %21, %23
  %25 = zext i32 %24 to i64
  %26 = getelementptr inbounds nuw i8, ptr %4, i64 %25
  %27 = load i8, ptr %26, align 1, !tbaa !12
  %28 = icmp eq i8 %27, 83
  br i1 %28, label %29, label %41

29:                                               ; preds = %22
  %30 = getelementptr inbounds nuw i8, ptr %26, i64 1
  %31 = load i8, ptr %30, align 1, !tbaa !12
  %32 = icmp eq i8 %31, 86
  br i1 %32, label %33, label %41

33:                                               ; preds = %29
  %34 = getelementptr inbounds nuw i8, ptr %26, i64 2
  %35 = load i8, ptr %34, align 1, !tbaa !12
  %36 = icmp eq i8 %35, 71
  br i1 %36, label %37, label %41

37:                                               ; preds = %33
  %38 = getelementptr inbounds nuw i8, ptr %26, i64 3
  %39 = load i8, ptr %38, align 1, !tbaa !12
  %40 = icmp eq i8 %39, 32
  br i1 %40, label %stbtt__find_table.exit.i, label %41

41:                                               ; preds = %37, %33, %29, %22
  %indvars.iv.next.i.i = add nuw nsw i64 %indvars.iv.i.i, 1
  %exitcond.not.i.i = icmp eq i64 %indvars.iv.next.i.i, %wide.trip.count.i.i
  br i1 %exitcond.not.i.i, label %.sink.split.i, label %22, !llvm.loop !19

stbtt__find_table.exit.i:                         ; preds = %37
  %42 = getelementptr inbounds nuw i8, ptr %26, i64 8
  %43 = load i8, ptr %42, align 1, !tbaa !12
  %44 = zext i8 %43 to i32
  %45 = shl nuw i32 %44, 24
  %46 = getelementptr inbounds nuw i8, ptr %26, i64 9
  %47 = load i8, ptr %46, align 1, !tbaa !12
  %48 = zext i8 %47 to i32
  %49 = shl nuw nsw i32 %48, 16
  %50 = or disjoint i32 %49, %45
  %51 = getelementptr inbounds nuw i8, ptr %26, i64 10
  %52 = load i8, ptr %51, align 1, !tbaa !12
  %53 = zext i8 %52 to i32
  %54 = shl nuw nsw i32 %53, 8
  %55 = or disjoint i32 %50, %54
  %56 = getelementptr inbounds nuw i8, ptr %26, i64 11
  %57 = load i8, ptr %56, align 1, !tbaa !12
  %58 = zext i8 %57 to i32
  %59 = or disjoint i32 %55, %58
  %.not.i = icmp eq i32 %59, 0
  br i1 %.not.i, label %.sink.split.i, label %60

60:                                               ; preds = %stbtt__find_table.exit.i
  %61 = zext i32 %59 to i64
  %62 = getelementptr inbounds nuw i8, ptr %4, i64 %61
  %63 = getelementptr inbounds nuw i8, ptr %62, i64 2
  %64 = load i8, ptr %63, align 1, !tbaa !12
  %65 = zext i8 %64 to i32
  %66 = shl nuw i32 %65, 24
  %67 = getelementptr inbounds nuw i8, ptr %62, i64 3
  %68 = load i8, ptr %67, align 1, !tbaa !12
  %69 = zext i8 %68 to i32
  %70 = shl nuw nsw i32 %69, 16
  %71 = or disjoint i32 %70, %66
  %72 = getelementptr inbounds nuw i8, ptr %62, i64 4
  %73 = load i8, ptr %72, align 1, !tbaa !12
  %74 = zext i8 %73 to i32
  %75 = shl nuw nsw i32 %74, 8
  %76 = or disjoint i32 %71, %75
  %77 = getelementptr inbounds nuw i8, ptr %62, i64 5
  %78 = load i8, ptr %77, align 1, !tbaa !12
  %79 = zext i8 %78 to i32
  %80 = or disjoint i32 %76, %79
  %81 = add i32 %80, %59
  br label %.sink.split.i

.sink.split.i:                                    ; preds = %41, %60, %stbtt__find_table.exit.i, %8
  %.sink.i = phi i32 [ %81, %60 ], [ 0, %8 ], [ 0, %stbtt__find_table.exit.i ], [ 0, %41 ]
  store i32 %.sink.i, ptr %5, align 4, !tbaa !21
  br label %stbtt__get_svg.exit

stbtt__get_svg.exit:                              ; preds = %2, %.sink.split.i
  %82 = phi i32 [ %6, %2 ], [ %.sink.i, %.sink.split.i ]
  %83 = sext i32 %82 to i64
  %84 = getelementptr inbounds i8, ptr %4, i64 %83
  %85 = load i8, ptr %84, align 1, !tbaa !12
  %86 = zext i8 %85 to i32
  %87 = shl nuw nsw i32 %86, 8
  %88 = getelementptr inbounds nuw i8, ptr %84, i64 1
  %89 = load i8, ptr %88, align 1, !tbaa !12
  %90 = zext i8 %89 to i32
  %91 = or disjoint i32 %87, %90
  %92 = getelementptr inbounds nuw i8, ptr %84, i64 2
  %.not27 = icmp eq i32 %91, 0
  br i1 %.not27, label %._crit_edge, label %.lr.ph.preheader

.lr.ph.preheader:                                 ; preds = %stbtt__get_svg.exit
  %wide.trip.count = zext nneg i32 %91 to i64
  br label %.lr.ph

.lr.ph:                                           ; preds = %.lr.ph.preheader, %111
  %indvars.iv = phi i64 [ 0, %.lr.ph.preheader ], [ %indvars.iv.next, %111 ]
  %93 = mul nuw nsw i64 %indvars.iv, 12
  %94 = getelementptr inbounds nuw i8, ptr %92, i64 %93
  %95 = load i8, ptr %94, align 1, !tbaa !12
  %96 = zext i8 %95 to i32
  %97 = shl nuw nsw i32 %96, 8
  %98 = getelementptr inbounds nuw i8, ptr %94, i64 1
  %99 = load i8, ptr %98, align 1, !tbaa !12
  %100 = zext i8 %99 to i32
  %101 = or disjoint i32 %97, %100
  %.not = icmp slt i32 %1, %101
  br i1 %.not, label %111, label %102

102:                                              ; preds = %.lr.ph
  %103 = getelementptr inbounds nuw i8, ptr %94, i64 2
  %104 = load i8, ptr %103, align 1, !tbaa !12
  %105 = zext i8 %104 to i32
  %106 = shl nuw nsw i32 %105, 8
  %107 = getelementptr inbounds nuw i8, ptr %94, i64 3
  %108 = load i8, ptr %107, align 1, !tbaa !12
  %109 = zext i8 %108 to i32
  %110 = or disjoint i32 %106, %109
  %.not19 = icmp samesign ugt i32 %1, %110
  br i1 %.not19, label %111, label %._crit_edge

111:                                              ; preds = %.lr.ph, %102
  %indvars.iv.next = add nuw nsw i64 %indvars.iv, 1
  %exitcond.not = icmp eq i64 %indvars.iv.next, %wide.trip.count
  br i1 %exitcond.not, label %._crit_edge, label %.lr.ph, !llvm.loop !91

._crit_edge:                                      ; preds = %111, %102, %stbtt__get_svg.exit
  %.2 = phi ptr [ null, %stbtt__get_svg.exit ], [ %94, %102 ], [ null, %111 ]
  ret ptr %.2
}